target datalayout = "e-m:e-p270:32:32-p271:32:32-p272:64:64-i64:64-i128:128-f80:128-n8:16:32:64-S128"
target triple = "x86_64-pc-linux-gnu"

%"class.Luau::CodeGen::X64::AssemblyBuilderX64" = type <{ %"class.std::vector", %"class.std::vector", %"class.std::__cxx11::basic_string", i8, [3 x i8], i32, i32, [4 x i8], %"class.std::vector.3", %"class.std::vector.8", %"class.Luau::DenseHashMap", %"class.Luau::DenseHashMap.13", i8, [7 x i8], i64, ptr, ptr, i32, [4 x i8] }>
%"class.std::vector" = type { %"struct.std::_Vector_base" }
%"struct.std::_Vector_base" = type { %"struct.std::_Vector_base<unsigned char, std::allocator<unsigned char>>::_Vector_impl" }
%"struct.std::_Vector_base<unsigned char, std::allocator<unsigned char>>::_Vector_impl" = type { %"struct.std::_Vector_base<unsigned char, std::allocator<unsigned char>>::_Vector_impl_data" }
%"struct.std::_Vector_base<unsigned char, std::allocator<unsigned char>>::_Vector_impl_data" = type { ptr, ptr, ptr }
%"class.std::__cxx11::basic_string" = type { %"struct.std::__cxx11::basic_string<char>::_Alloc_hider", i64, %union.anon }
%"struct.std::__cxx11::basic_string<char>::_Alloc_hider" = type { ptr }
%union.anon = type { i64, [8 x i8] }
%"class.std::vector.3" = type { %"struct.std::_Vector_base.4" }
%"struct.std::_Vector_base.4" = type { %"struct.std::_Vector_base<Luau::CodeGen::Label, std::allocator<Luau::CodeGen::Label>>::_Vector_impl" }
%"struct.std::_Vector_base<Luau::CodeGen::Label, std::allocator<Luau::CodeGen::Label>>::_Vector_impl" = type { %"struct.std::_Vector_base<Luau::CodeGen::Label, std::allocator<Luau::CodeGen::Label>>::_Vector_impl_data" }
%"struct.std::_Vector_base<Luau::CodeGen::Label, std::allocator<Luau::CodeGen::Label>>::_Vector_impl_data" = type { ptr, ptr, ptr }
%"class.std::vector.8" = type { %"struct.std::_Vector_base.9" }
%"struct.std::_Vector_base.9" = type { %"struct.std::_Vector_base<unsigned int, std::allocator<unsigned int>>::_Vector_impl" }
%"struct.std::_Vector_base<unsigned int, std::allocator<unsigned int>>::_Vector_impl" = type { %"struct.std::_Vector_base<unsigned int, std::allocator<unsigned int>>::_Vector_impl_data" }
%"struct.std::_Vector_base<unsigned int, std::allocator<unsigned int>>::_Vector_impl_data" = type { ptr, ptr, ptr }
%"class.Luau::DenseHashMap" = type { %"class.Luau::detail::DenseHashTable" }
%"class.Luau::detail::DenseHashTable" = type <{ ptr, i64, i64, i32, [4 x i8] }>
%"class.Luau::DenseHashMap.13" = type { %"class.Luau::detail::DenseHashTable.14" }
%"class.Luau::detail::DenseHashTable.14" = type <{ ptr, i64, i64, i64, [8 x i8] }>

@.str.42 = private unnamed_addr constant [12 x i8] c"; align %u\0A\00", align 1
@.str.43 = private unnamed_addr constant [23 x i8] c"; align %u using int3\0A\00", align 1
@.str.44 = private unnamed_addr constant [22 x i8] c"; align %u using ud2\0A\00", align 1

; Function Attrs: mustprogress nounwind uwtable
define linkonce_odr dso_local noundef ptr @_ZNKSt6vectorIhSaIhEE11_M_data_ptrIhEEPT_S4_(ptr noundef nonnull align 8 dereferenceable(24) %0, ptr noundef %1) #1 comdat align 2 {
  %3 = alloca ptr, align 8
  %4 = alloca ptr, align 8
  store ptr %0, ptr %3, align 8, !tbaa !55
  store ptr %1, ptr %4, align 8, !tbaa !80
  %5 = load ptr, ptr %4, align 8, !tbaa !80
  ret ptr %5
}

; Function Attrs: mustprogress nounwind uwtable
define linkonce_odr dso_local noundef ptr @_ZNKSt6vectorIhSaIhEE4dataEv(ptr noundef nonnull align 8 dereferenceable(24) %0) #1 comdat align 2 {
  %2 = alloca ptr, align 8
  store ptr %0, ptr %2, align 8, !tbaa !55
  %3 = load ptr, ptr %2, align 8
  %4 = getelementptr inbounds nuw %"struct.std::_Vector_base", ptr %3, i32 0, i32 0
  %5 = getelementptr inbounds nuw %"struct.std::_Vector_base<unsigned char, std::allocator<unsigned char>>::_Vector_impl_data", ptr %4, i32 0, i32 0
  %6 = load ptr, ptr %5, align 8, !tbaa !70
  %7 = call noundef ptr @_ZNKSt6vectorIhSaIhEE11_M_data_ptrIhEEPT_S4_(ptr noundef nonnull align 8 dereferenceable(24) %3, ptr noundef %6) #17
  ret ptr %7
}

; Function Attrs: mustprogress uwtable
define dso_local void @_ZN4Luau7CodeGen3X6418AssemblyBuilderX646commitEv(ptr noundef nonnull align 8 dereferenceable(252) %0) #0 align 2 {
  %2 = alloca ptr, align 8
  store ptr %0, ptr %2, align 8, !tbaa !4
  %3 = load ptr, ptr %2, align 8
  %4 = getelementptr inbounds nuw %"class.Luau::CodeGen::X64::AssemblyBuilderX64", ptr %3, i32 0, i32 17
  %5 = load i32, ptr %4, align 8, !tbaa !54
  %6 = add i32 %5, 1
  store i32 %6, ptr %4, align 8, !tbaa !54
  %7 = getelementptr inbounds nuw %"class.Luau::CodeGen::X64::AssemblyBuilderX64", ptr %3, i32 0, i32 16
  %8 = load ptr, ptr %7, align 8, !tbaa !53
  %9 = getelementptr inbounds nuw %"class.Luau::CodeGen::X64::AssemblyBuilderX64", ptr %3, i32 0, i32 15
  %10 = load ptr, ptr %9, align 8, !tbaa !52
  %11 = ptrtoint ptr %8 to i64
  %12 = ptrtoint ptr %10 to i64
  %13 = sub i64 %11, %12
  %14 = trunc i64 %13 to i32
  %15 = icmp ult i32 %14, 16
  br i1 %15, label %16, label %17

16:                                               ; preds = %1
  call void @_ZN4Luau7CodeGen3X6418AssemblyBuilderX646extendEv(ptr noundef nonnull align 8 dereferenceable(252) %3)
  br label %17

17:                                               ; preds = %16, %1
  ret void
}

; Function Attrs: mustprogress nounwind uwtable
define dso_local void @_ZN4Luau7CodeGen3X6418AssemblyBuilderX645placeEh(ptr noundef nonnull align 8 dereferenceable(252) %0, i8 noundef zeroext %1) #1 align 2 {
  %3 = alloca ptr, align 8
  %4 = alloca i8, align 1
  store ptr %0, ptr %3, align 8, !tbaa !4
  store i8 %1, ptr %4, align 1, !tbaa !79
  %5 = load ptr, ptr %3, align 8
  %6 = load i8, ptr %4, align 1, !tbaa !79
  %7 = getelementptr inbounds nuw %"class.Luau::CodeGen::X64::AssemblyBuilderX64", ptr %5, i32 0, i32 15
  %8 = load ptr, ptr %7, align 8, !tbaa !52
  %9 = getelementptr inbounds nuw i8, ptr %8, i32 1
  store ptr %9, ptr %7, align 8, !tbaa !52
  store i8 %6, ptr %8, align 1, !tbaa !79
  ret void
}

; Function Attrs: mustprogress nounwind uwtable
define dso_local noundef i32 @_ZNK4Luau7CodeGen3X6418AssemblyBuilderX6411getCodeSizeEv(ptr noundef nonnull align 8 dereferenceable(252) %0) #1 align 2 {
  %2 = alloca ptr, align 8
  store ptr %0, ptr %2, align 8, !tbaa !4
  %3 = load ptr, ptr %2, align 8
  %4 = getelementptr inbounds nuw %"class.Luau::CodeGen::X64::AssemblyBuilderX64", ptr %3, i32 0, i32 15
  %5 = load ptr, ptr %4, align 8, !tbaa !52
  %6 = getelementptr inbounds nuw %"class.Luau::CodeGen::X64::AssemblyBuilderX64", ptr %3, i32 0, i32 1
  %7 = call noundef ptr @_ZNKSt6vectorIhSaIhEE4dataEv(ptr noundef nonnull align 8 dereferenceable(24) %6) #17
  %8 = ptrtoint ptr %5 to i64
  %9 = ptrtoint ptr %7 to i64
  %10 = sub i64 %8, %9
  %11 = trunc i64 %10 to i32
  ret i32 %11
}

; Function Attrs: mustprogress uwtable
define dso_local void @_ZN4Luau7CodeGen3X6418AssemblyBuilderX645alignEjNS1_16AlignmentDataX64E(ptr noundef nonnull align 8 dereferenceable(252) %0, i32 noundef %1, i32 noundef %2) #0 align 2 {
  %4 = alloca ptr, align 8
  %5 = alloca i32, align 4
  %6 = alloca i32, align 4
  %7 = alloca i32, align 4
  %8 = alloca i32, align 4
  %9 = alloca i32, align 4
  %10 = alloca i32, align 4
  store ptr %0, ptr %4, align 8, !tbaa !4
  store i32 %1, ptr %5, align 4, !tbaa !48
  store i32 %2, ptr %6, align 4, !tbaa !101
  %11 = load ptr, ptr %4, align 8
  call void @llvm.lifetime.start.p0(i64 4, ptr %7) #17
  %12 = call noundef i32 @_ZNK4Luau7CodeGen3X6418AssemblyBuilderX6411getCodeSizeEv(ptr noundef nonnull align 8 dereferenceable(252) %11)
  store i32 %12, ptr %7, align 4, !tbaa !48
  call void @llvm.lifetime.start.p0(i64 4, ptr %8) #17
  %13 = load i32, ptr %7, align 4, !tbaa !48
  %14 = load i32, ptr %5, align 4, !tbaa !48
  %15 = add i32 %13, %14
  %16 = sub i32 %15, 1
  %17 = load i32, ptr %5, align 4, !tbaa !48
  %18 = sub i32 %17, 1
  %19 = xor i32 %18, -1
  %20 = and i32 %16, %19
  %21 = load i32, ptr %7, align 4, !tbaa !48
  %22 = sub i32 %20, %21
  store i32 %22, ptr %8, align 4, !tbaa !48
  %23 = load i32, ptr %6, align 4, !tbaa !101
  switch i32 %23, label %93 [
    i32 0, label %24
    i32 1, label %32
    i32 2, label %60
  ]

24:                                               ; preds = %3
  %25 = getelementptr inbounds nuw %"class.Luau::CodeGen::X64::AssemblyBuilderX64", ptr %11, i32 0, i32 3
  %26 = load i8, ptr %25, align 8, !tbaa !15, !range !13, !noundef !14
  %27 = trunc i8 %26 to i1
  br i1 %27, label %28, label %30

28:                                               ; preds = %24
  %29 = load i32, ptr %5, align 4, !tbaa !48
  call void (ptr, ptr, ...) @_ZN4Luau7CodeGen3X6418AssemblyBuilderX649logAppendEPKcz(ptr noundef nonnull align 8 dereferenceable(252) %11, ptr noundef @.str.42, i32 noundef %29)
  br label %30

30:                                               ; preds = %28, %24
  %31 = load i32, ptr %8, align 4, !tbaa !48
  call void @_ZN4Luau7CodeGen3X6418AssemblyBuilderX643nopEj(ptr noundef nonnull align 8 dereferenceable(252) %11, i32 noundef %31)
  br label %93

32:                                               ; preds = %3
  %33 = getelementptr inbounds nuw %"class.Luau::CodeGen::X64::AssemblyBuilderX64", ptr %11, i32 0, i32 3
  %34 = load i8, ptr %33, align 8, !tbaa !15, !range !13, !noundef !14
  %35 = trunc i8 %34 to i1
  br i1 %35, label %36, label %38

36:                                               ; preds = %32
  %37 = load i32, ptr %5, align 4, !tbaa !48
  call void (ptr, ptr, ...) @_ZN4Luau7CodeGen3X6418AssemblyBuilderX649logAppendEPKcz(ptr noundef nonnull align 8 dereferenceable(252) %11, ptr noundef @.str.43, i32 noundef %37)
  br label %38

38:                                               ; preds = %36, %32
  br label %39

39:                                               ; preds = %48, %38
  %40 = getelementptr inbounds nuw %"class.Luau::CodeGen::X64::AssemblyBuilderX64", ptr %11, i32 0, i32 15
  %41 = load ptr, ptr %40, align 8, !tbaa !52
  %42 = load i32, ptr %8, align 4, !tbaa !48
  %43 = zext i32 %42 to i64
  %44 = getelementptr inbounds nuw i8, ptr %41, i64 %43
  %45 = getelementptr inbounds nuw %"class.Luau::CodeGen::X64::AssemblyBuilderX64", ptr %11, i32 0, i32 16
  %46 = load ptr, ptr %45, align 8, !tbaa !53
  %47 = icmp ugt ptr %44, %46
  br i1 %47, label %48, label %49

48:                                               ; preds = %39
  call void @_ZN4Luau7CodeGen3X6418AssemblyBuilderX646extendEv(ptr noundef nonnull align 8 dereferenceable(252) %11)
  br label %39, !llvm.loop !103

49:                                               ; preds = %39
  call void @llvm.lifetime.start.p0(i64 4, ptr %9) #17
  store i32 0, ptr %9, align 4, !tbaa !48
  br label %50

50:                                               ; preds = %56, %49
  %51 = load i32, ptr %9, align 4, !tbaa !48
  %52 = load i32, ptr %8, align 4, !tbaa !48
  %53 = icmp ult i32 %51, %52
  br i1 %53, label %55, label %54

54:                                               ; preds = %50
  call void @llvm.lifetime.end.p0(i64 4, ptr %9) #17
  br label %59

55:                                               ; preds = %50
  call void @_ZN4Luau7CodeGen3X6418AssemblyBuilderX645placeEh(ptr noundef nonnull align 8 dereferenceable(252) %11, i8 noundef zeroext -52)
  br label %56

56:                                               ; preds = %55
  %57 = load i32, ptr %9, align 4, !tbaa !48
  %58 = add i32 %57, 1
  store i32 %58, ptr %9, align 4, !tbaa !48
  br label %50, !llvm.loop !104

59:                                               ; preds = %54
  call void @_ZN4Luau7CodeGen3X6418AssemblyBuilderX646commitEv(ptr noundef nonnull align 8 dereferenceable(252) %11)
  br label %93

60:                                               ; preds = %3
  %61 = getelementptr inbounds nuw %"class.Luau::CodeGen::X64::AssemblyBuilderX64", ptr %11, i32 0, i32 3
  %62 = load i8, ptr %61, align 8, !tbaa !15, !range !13, !noundef !14
  %63 = trunc i8 %62 to i1
  br i1 %63, label %64, label %66

64:                                               ; preds = %60
  %65 = load i32, ptr %5, align 4, !tbaa !48
  call void (ptr, ptr, ...) @_ZN4Luau7CodeGen3X6418AssemblyBuilderX649logAppendEPKcz(ptr noundef nonnull align 8 dereferenceable(252) %11, ptr noundef @.str.44, i32 noundef %65)
  br label %66

66:                                               ; preds = %64, %60
  br label %67

67:                                               ; preds = %76, %66
  %68 = getelementptr inbounds nuw %"class.Luau::CodeGen::X64::AssemblyBuilderX64", ptr %11, i32 0, i32 15
  %69 = load ptr, ptr %68, align 8, !tbaa !52
  %70 = load i32, ptr %8, align 4, !tbaa !48
  %71 = zext i32 %70 to i64
  %72 = getelementptr inbounds nuw i8, ptr %69, i64 %71
  %73 = getelementptr inbounds nuw %"class.Luau::CodeGen::X64::AssemblyBuilderX64", ptr %11, i32 0, i32 16
  %74 = load ptr, ptr %73, align 8, !tbaa !53
  %75 = icmp ugt ptr %72, %74
  br i1 %75, label %76, label %77

76:                                               ; preds = %67
  call void @_ZN4Luau7CodeGen3X6418AssemblyBuilderX646extendEv(ptr noundef nonnull align 8 dereferenceable(252) %11)
  br label %67, !llvm.loop !105

77:                                               ; preds = %67
  call void @llvm.lifetime.start.p0(i64 4, ptr %10) #17
  store i32 0, ptr %10, align 4, !tbaa !48
  br label %78

78:                                               ; preds = %84, %77
  %79 = load i32, ptr %10, align 4, !tbaa !48
  %80 = add i32 %79, 1
  %81 = load i32, ptr %8, align 4, !tbaa !48
  %82 = icmp ult i32 %80, %81
  br i1 %82, label %83, label %87

83:                                               ; preds = %78
  call void @_ZN4Luau7CodeGen3X6418AssemblyBuilderX645placeEh(ptr noundef nonnull align 8 dereferenceable(252) %11, i8 noundef zeroext 15)
  call void @_ZN4Luau7CodeGen3X6418AssemblyBuilderX645placeEh(ptr noundef nonnull align 8 dereferenceable(252) %11, i8 noundef zeroext 11)
  br label %84

84:                                               ; preds = %83
  %85 = load i32, ptr %10, align 4, !tbaa !48
  %86 = add i32 %85, 2
  store i32 %86, ptr %10, align 4, !tbaa !48
  br label %78, !llvm.loop !106

87:                                               ; preds = %78
  %88 = load i32, ptr %10, align 4, !tbaa !48
  %89 = load i32, ptr %8, align 4, !tbaa !48
  %90 = icmp ult i32 %88, %89
  br i1 %90, label %91, label %92

91:                                               ; preds = %87
  call void @_ZN4Luau7CodeGen3X6418AssemblyBuilderX645placeEh(ptr noundef nonnull align 8 dereferenceable(252) %11, i8 noundef zeroext -52)
  br label %92

92:                                               ; preds = %91, %87
  call void @_ZN4Luau7CodeGen3X6418AssemblyBuilderX646commitEv(ptr noundef nonnull align 8 dereferenceable(252) %11)
  call void @llvm.lifetime.end.p0(i64 4, ptr %10) #17
  br label %93

93:                                               ; preds = %3, %92, %59, %30
  call void @llvm.lifetime.end.p0(i64 4, ptr %8) #17
  call void @llvm.lifetime.end.p0(i64 4, ptr %7) #17
  ret void
}