; Function Attrs: mustprogress uwtable
define dso_local void @_ZN4Luau7CodeGen3X6418AssemblyBuilderX645alignEjNS1_16AlignmentDataX64E(ptr noundef nonnull align 8 dereferenceable(252) %0, i32 noundef %1, i32 noundef %2) local_unnamed_addr #0 align 2 {
  %4 = getelementptr inbounds nuw i8, ptr %0, i64 232
  %5 = load ptr, ptr %4, align 8, !tbaa !51
  %6 = getelementptr inbounds nuw i8, ptr %0, i64 24
  %7 = load ptr, ptr %6, align 8, !tbaa !49
  %8 = ptrtoint ptr %5 to i64
  %9 = ptrtoint ptr %7 to i64
  %10 = sub i64 %8, %9
  %11 = trunc i64 %10 to i32
  %12 = add i32 %1, -1
  %13 = add i32 %12, %11
  %14 = sub i32 0, %1
  %15 = and i32 %13, %14
  %16 = sub i32 %15, %11
  switch i32 %2, label %_ZN4Luau7CodeGen3X6418AssemblyBuilderX646commitEv.exit [
    i32 0, label %17
    i32 1, label %23
    i32 2, label %55
  ]

17:                                               ; preds = %3
  %18 = getelementptr inbounds nuw i8, ptr %0, i64 80
  %19 = load i8, ptr %18, align 8, !tbaa !14, !range !61, !noundef !62
  %20 = trunc nuw i8 %19 to i1
  br i1 %20, label %21, label %22

21:                                               ; preds = %17
  tail call void (ptr, ptr, ...) @_ZN4Luau7CodeGen3X6418AssemblyBuilderX649logAppendEPKcz(ptr noundef nonnull align 8 dereferenceable(252) %0, ptr noundef nonnull @.str.42, i32 noundef %1)
  br label %22

22:                                               ; preds = %21, %17
  tail call void @_ZN4Luau7CodeGen3X6418AssemblyBuilderX643nopEj(ptr noundef nonnull align 8 dereferenceable(252) %0, i32 noundef %16)
  br label %_ZN4Luau7CodeGen3X6418AssemblyBuilderX646commitEv.exit

23:                                               ; preds = %3
  %24 = getelementptr inbounds nuw i8, ptr %0, i64 80
  %25 = load i8, ptr %24, align 8, !tbaa !14, !range !61, !noundef !62
  %26 = trunc nuw i8 %25 to i1
  br i1 %26, label %27, label %28

27:                                               ; preds = %23
  tail call void (ptr, ptr, ...) @_ZN4Luau7CodeGen3X6418AssemblyBuilderX649logAppendEPKcz(ptr noundef nonnull align 8 dereferenceable(252) %0, ptr noundef nonnull @.str.43, i32 noundef %1)
  %.pre33 = load ptr, ptr %4, align 8, !tbaa !51
  br label %28

28:                                               ; preds = %27, %23
  %29 = phi ptr [ %.pre33, %27 ], [ %5, %23 ]
  %30 = zext i32 %16 to i64
  %31 = getelementptr inbounds nuw i8, ptr %0, i64 240
  %32 = getelementptr inbounds nuw i8, ptr %29, i64 %30
  %33 = load ptr, ptr %31, align 8, !tbaa !52
  %34 = icmp ugt ptr %32, %33
  br i1 %34, label %.lr.ph27, label %.preheader

.preheader:                                       ; preds = %.lr.ph27, %28
  %35 = phi ptr [ %29, %28 ], [ %37, %.lr.ph27 ]
  %36 = phi ptr [ %33, %28 ], [ %39, %.lr.ph27 ]
  %.not = icmp eq i32 %15, %11
  br i1 %.not, label %._crit_edge30, label %.lr.ph29

.lr.ph27:                                         ; preds = %28, %.lr.ph27
  tail call void @_ZN4Luau7CodeGen3X6418AssemblyBuilderX646extendEv(ptr noundef nonnull align 8 dereferenceable(252) %0)
  %37 = load ptr, ptr %4, align 8, !tbaa !51
  %38 = getelementptr inbounds nuw i8, ptr %37, i64 %30
  %39 = load ptr, ptr %31, align 8, !tbaa !52
  %40 = icmp ugt ptr %38, %39
  br i1 %40, label %.lr.ph27, label %.preheader, !llvm.loop !79

._crit_edge30.loopexit:                           ; preds = %.lr.ph29
  %.pre34 = load ptr, ptr %31, align 8, !tbaa !52
  %.pre35 = load ptr, ptr %4, align 8, !tbaa !51
  br label %._crit_edge30

._crit_edge30:                                    ; preds = %._crit_edge30.loopexit, %.preheader
  %41 = phi ptr [ %.pre35, %._crit_edge30.loopexit ], [ %35, %.preheader ]
  %42 = phi ptr [ %.pre34, %._crit_edge30.loopexit ], [ %36, %.preheader ]
  %43 = getelementptr inbounds nuw i8, ptr %0, i64 248
  %44 = load i32, ptr %43, align 8, !tbaa !63
  %45 = add i32 %44, 1
  store i32 %45, ptr %43, align 8, !tbaa !63
  %46 = ptrtoint ptr %42 to i64
  %47 = ptrtoint ptr %41 to i64
  %48 = sub i64 %46, %47
  %49 = and i64 %48, 4294967280
  %50 = icmp eq i64 %49, 0
  br i1 %50, label %51, label %_ZN4Luau7CodeGen3X6418AssemblyBuilderX646commitEv.exit

51:                                               ; preds = %._crit_edge30
  tail call void @_ZN4Luau7CodeGen3X6418AssemblyBuilderX646extendEv(ptr noundef nonnull align 8 dereferenceable(252) %0)
  br label %_ZN4Luau7CodeGen3X6418AssemblyBuilderX646commitEv.exit

.lr.ph29:                                         ; preds = %.preheader, %.lr.ph29
  %.01928 = phi i32 [ %54, %.lr.ph29 ], [ 0, %.preheader ]
  %52 = load ptr, ptr %4, align 8, !tbaa !51
  %53 = getelementptr inbounds nuw i8, ptr %52, i64 1
  store ptr %53, ptr %4, align 8, !tbaa !51
  store i8 -52, ptr %52, align 1, !tbaa !13
  %54 = add nuw i32 %.01928, 1
  %exitcond.not = icmp eq i32 %54, %16
  br i1 %exitcond.not, label %._crit_edge30.loopexit, label %.lr.ph29, !llvm.loop !80

55:                                               ; preds = %3
  %56 = getelementptr inbounds nuw i8, ptr %0, i64 80
  %57 = load i8, ptr %56, align 8, !tbaa !14, !range !61, !noundef !62
  %58 = trunc nuw i8 %57 to i1
  br i1 %58, label %59, label %60

59:                                               ; preds = %55
  tail call void (ptr, ptr, ...) @_ZN4Luau7CodeGen3X6418AssemblyBuilderX649logAppendEPKcz(ptr noundef nonnull align 8 dereferenceable(252) %0, ptr noundef nonnull @.str.44, i32 noundef %1)
  %.pre = load ptr, ptr %4, align 8, !tbaa !51
  br label %60

60:                                               ; preds = %59, %55
  %61 = phi ptr [ %.pre, %59 ], [ %5, %55 ]
  %62 = zext i32 %16 to i64
  %63 = getelementptr inbounds nuw i8, ptr %0, i64 240
  %64 = getelementptr inbounds nuw i8, ptr %61, i64 %62
  %65 = load ptr, ptr %63, align 8, !tbaa !52
  %66 = icmp ugt ptr %64, %65
  br i1 %66, label %.lr.ph, label %.preheader22

.preheader22:                                     ; preds = %.lr.ph, %60
  %.pre3237 = phi ptr [ %61, %60 ], [ %68, %.lr.ph ]
  %67 = icmp ugt i32 %16, 1
  br i1 %67, label %.lr.ph25, label %._crit_edge

.lr.ph:                                           ; preds = %60, %.lr.ph
  tail call void @_ZN4Luau7CodeGen3X6418AssemblyBuilderX646extendEv(ptr noundef nonnull align 8 dereferenceable(252) %0)
  %68 = load ptr, ptr %4, align 8, !tbaa !51
  %69 = getelementptr inbounds nuw i8, ptr %68, i64 %62
  %70 = load ptr, ptr %63, align 8, !tbaa !52
  %71 = icmp ugt ptr %69, %70
  br i1 %71, label %.lr.ph, label %.preheader22, !llvm.loop !81

.lr.ph25:                                         ; preds = %.preheader22, %.lr.ph25
  %.024 = phi i32 [ %76, %.lr.ph25 ], [ 0, %.preheader22 ]
  %72 = load ptr, ptr %4, align 8, !tbaa !51
  %73 = getelementptr inbounds nuw i8, ptr %72, i64 1
  store ptr %73, ptr %4, align 8, !tbaa !51
  store i8 15, ptr %72, align 1, !tbaa !13
  %74 = load ptr, ptr %4, align 8, !tbaa !51
  %75 = getelementptr inbounds nuw i8, ptr %74, i64 1
  store ptr %75, ptr %4, align 8, !tbaa !51
  store i8 11, ptr %74, align 1, !tbaa !13
  %76 = add nuw i32 %.024, 2
  %77 = or disjoint i32 %76, 1
  %78 = icmp ult i32 %77, %16
  br i1 %78, label %.lr.ph25, label %._crit_edge.loopexit, !llvm.loop !82

._crit_edge.loopexit:                             ; preds = %.lr.ph25
  %.pre32.pre = load ptr, ptr %4, align 8, !tbaa !51
  br label %._crit_edge

._crit_edge:                                      ; preds = %._crit_edge.loopexit, %.preheader22
  %.pre32 = phi ptr [ %.pre3237, %.preheader22 ], [ %.pre32.pre, %._crit_edge.loopexit ]
  %.0.lcssa = phi i32 [ 0, %.preheader22 ], [ %76, %._crit_edge.loopexit ]
  %79 = icmp ult i32 %.0.lcssa, %16
  br i1 %79, label %80, label %82

80:                                               ; preds = %._crit_edge
  %81 = getelementptr inbounds nuw i8, ptr %.pre32, i64 1
  store ptr %81, ptr %4, align 8, !tbaa !51
  store i8 -52, ptr %.pre32, align 1, !tbaa !13
  %.pre31 = load ptr, ptr %4, align 8, !tbaa !51
  br label %82

82:                                               ; preds = %80, %._crit_edge
  %83 = phi ptr [ %.pre31, %80 ], [ %.pre32, %._crit_edge ]
  %84 = getelementptr inbounds nuw i8, ptr %0, i64 248
  %85 = load i32, ptr %84, align 8, !tbaa !63
  %86 = add i32 %85, 1
  store i32 %86, ptr %84, align 8, !tbaa !63
  %87 = load ptr, ptr %63, align 8, !tbaa !52
  %88 = ptrtoint ptr %87 to i64
  %89 = ptrtoint ptr %83 to i64
  %90 = sub i64 %88, %89
  %91 = and i64 %90, 4294967280
  %92 = icmp eq i64 %91, 0
  br i1 %92, label %93, label %_ZN4Luau7CodeGen3X6418AssemblyBuilderX646commitEv.exit

93:                                               ; preds = %82
  tail call void @_ZN4Luau7CodeGen3X6418AssemblyBuilderX646extendEv(ptr noundef nonnull align 8 dereferenceable(252) %0)
  br label %_ZN4Luau7CodeGen3X6418AssemblyBuilderX646commitEv.exit

_ZN4Luau7CodeGen3X6418AssemblyBuilderX646commitEv.exit: ; preds = %93, %82, %51, %._crit_edge30, %22, %3
  ret void
}